; ModuleID = 'source-C-CXX/41/1517.c'
source_filename = "source-C-CXX/41/1517.c"
target datalayout = "e-m:e-p270:32:32-p271:32:32-p272:64:64-i64:64-f80:128-n8:16:32:64-S128"
target triple = "x86_64-pc-linux-gnu"

@.str = private unnamed_addr constant [3 x i8] c"%d\00", align 1
@.str.1 = private unnamed_addr constant [4 x i8] c" %d\00", align 1

; Function Attrs: nofree nounwind sspstrong uwtable
define dso_local i32 @main() local_unnamed_addr #0 {
  %1 = alloca i32, align 4
  %2 = alloca [100 x i32], align 16
  %3 = alloca i32, align 4
  %4 = bitcast i32* %1 to i8*
  call void @llvm.lifetime.start.p0i8(i64 4, i8* nonnull %4) #3
  %5 = call i32 (i8*, ...) @__isoc99_scanf(i8* getelementptr inbounds ([3 x i8], [3 x i8]* @.str, i64 0, i64 0), i32* nonnull %1)
  %6 = bitcast [100 x i32]* %2 to i8*
  call void @llvm.lifetime.start.p0i8(i64 400, i8* nonnull %6) #3
  %7 = load i32, i32* %1, align 4, !tbaa !5
  %8 = icmp sgt i32 %7, 0
  br i1 %8, label %9, label %17

9:                                                ; preds = %0, %9
  %10 = phi i64 [ %13, %9 ], [ 0, %0 ]
  %11 = getelementptr inbounds [100 x i32], [100 x i32]* %2, i64 0, i64 %10
  %12 = call i32 (i8*, ...) @__isoc99_scanf(i8* getelementptr inbounds ([3 x i8], [3 x i8]* @.str, i64 0, i64 0), i32* nonnull %11)
  %13 = add nuw nsw i64 %10, 1
  %14 = load i32, i32* %1, align 4, !tbaa !5
  %15 = sext i32 %14 to i64
  %16 = icmp slt i64 %13, %15
  br i1 %16, label %9, label %17, !llvm.loop !9

17:                                               ; preds = %9, %0
  %18 = bitcast i32* %3 to i8*
  call void @llvm.lifetime.start.p0i8(i64 4, i8* nonnull %18) #3
  %19 = call i32 (i8*, ...) @__isoc99_scanf(i8* getelementptr inbounds ([3 x i8], [3 x i8]* @.str, i64 0, i64 0), i32* nonnull %3)
  %20 = load i32, i32* %1, align 4, !tbaa !5
  %21 = load i32, i32* %3, align 4
  %22 = icmp sgt i32 %20, 0
  br i1 %22, label %26, label %134

23:                                               ; preds = %113
  %24 = getelementptr inbounds [100 x i32], [100 x i32]* %2, i64 0, i64 0
  %25 = icmp sgt i32 %20, %115
  br i1 %25, label %117, label %134

26:                                               ; preds = %17, %113
  %27 = phi i32 [ %115, %113 ], [ 0, %17 ]
  %28 = phi i32 [ %114, %113 ], [ 0, %17 ]
  %29 = sext i32 %28 to i64
  %30 = getelementptr inbounds [100 x i32], [100 x i32]* %2, i64 0, i64 %29
  %31 = load i32, i32* %30, align 4, !tbaa !5
  %32 = icmp eq i32 %31, %21
  br i1 %32, label %33, label %111

33:                                               ; preds = %26
  %34 = add nsw i32 %27, 1
  %35 = icmp sgt i32 %20, %28
  br i1 %35, label %36, label %113

36:                                               ; preds = %33
  %37 = sub i32 %20, %28
  %38 = zext i32 %37 to i64
  %39 = icmp ult i32 %37, 8
  br i1 %39, label %99, label %40

40:                                               ; preds = %36
  %41 = and i64 %38, 4294967288
  %42 = add nsw i64 %41, %29
  %43 = add nsw i64 %41, -8
  %44 = lshr exact i64 %43, 3
  %45 = add nuw nsw i64 %44, 1
  %46 = and i64 %45, 1
  %47 = icmp eq i64 %43, 0
  br i1 %47, label %81, label %48

48:                                               ; preds = %40
  %49 = and i64 %45, 4611686018427387902
  br label %50

50:                                               ; preds = %50, %48
  %51 = phi i64 [ 0, %48 ], [ %78, %50 ]
  %52 = phi i64 [ %49, %48 ], [ %79, %50 ]
  %53 = add i64 %51, %29
  %54 = add nsw i64 %53, 1
  %55 = getelementptr inbounds [100 x i32], [100 x i32]* %2, i64 0, i64 %54
  %56 = bitcast i32* %55 to <4 x i32>*
  %57 = load <4 x i32>, <4 x i32>* %56, align 4, !tbaa !5
  %58 = getelementptr inbounds i32, i32* %55, i64 4
  %59 = bitcast i32* %58 to <4 x i32>*
  %60 = load <4 x i32>, <4 x i32>* %59, align 4, !tbaa !5
  %61 = getelementptr inbounds [100 x i32], [100 x i32]* %2, i64 0, i64 %53
  %62 = bitcast i32* %61 to <4 x i32>*
  store <4 x i32> %57, <4 x i32>* %62, align 4, !tbaa !5
  %63 = getelementptr inbounds i32, i32* %61, i64 4
  %64 = bitcast i32* %63 to <4 x i32>*
  store <4 x i32> %60, <4 x i32>* %64, align 4, !tbaa !5
  %65 = or i64 %51, 8
  %66 = add i64 %65, %29
  %67 = add nsw i64 %66, 1
  %68 = getelementptr inbounds [100 x i32], [100 x i32]* %2, i64 0, i64 %67
  %69 = bitcast i32* %68 to <4 x i32>*
  %70 = load <4 x i32>, <4 x i32>* %69, align 4, !tbaa !5
  %71 = getelementptr inbounds i32, i32* %68, i64 4
  %72 = bitcast i32* %71 to <4 x i32>*
  %73 = load <4 x i32>, <4 x i32>* %72, align 4, !tbaa !5
  %74 = getelementptr inbounds [100 x i32], [100 x i32]* %2, i64 0, i64 %66
  %75 = bitcast i32* %74 to <4 x i32>*
  store <4 x i32> %70, <4 x i32>* %75, align 4, !tbaa !5
  %76 = getelementptr inbounds i32, i32* %74, i64 4
  %77 = bitcast i32* %76 to <4 x i32>*
  store <4 x i32> %73, <4 x i32>* %77, align 4, !tbaa !5
  %78 = add nuw i64 %51, 16
  %79 = add i64 %52, -2
  %80 = icmp eq i64 %79, 0
  br i1 %80, label %81, label %50, !llvm.loop !11

81:                                               ; preds = %50, %40
  %82 = phi i64 [ 0, %40 ], [ %78, %50 ]
  %83 = icmp eq i64 %46, 0
  br i1 %83, label %97, label %84

84:                                               ; preds = %81
  %85 = add i64 %82, %29
  %86 = add nsw i64 %85, 1
  %87 = getelementptr inbounds [100 x i32], [100 x i32]* %2, i64 0, i64 %86
  %88 = bitcast i32* %87 to <4 x i32>*
  %89 = load <4 x i32>, <4 x i32>* %88, align 4, !tbaa !5
  %90 = getelementptr inbounds i32, i32* %87, i64 4
  %91 = bitcast i32* %90 to <4 x i32>*
  %92 = load <4 x i32>, <4 x i32>* %91, align 4, !tbaa !5
  %93 = getelementptr inbounds [100 x i32], [100 x i32]* %2, i64 0, i64 %85
  %94 = bitcast i32* %93 to <4 x i32>*
  store <4 x i32> %89, <4 x i32>* %94, align 4, !tbaa !5
  %95 = getelementptr inbounds i32, i32* %93, i64 4
  %96 = bitcast i32* %95 to <4 x i32>*
  store <4 x i32> %92, <4 x i32>* %96, align 4, !tbaa !5
  br label %97

97:                                               ; preds = %81, %84
  %98 = icmp eq i64 %41, %38
  br i1 %98, label %113, label %99

99:                                               ; preds = %36, %97
  %100 = phi i64 [ 0, %36 ], [ %41, %97 ]
  %101 = phi i64 [ %29, %36 ], [ %42, %97 ]
  br label %102

102:                                              ; preds = %99, %102
  %103 = phi i64 [ %109, %102 ], [ %100, %99 ]
  %104 = phi i64 [ %105, %102 ], [ %101, %99 ]
  %105 = add nsw i64 %104, 1
  %106 = getelementptr inbounds [100 x i32], [100 x i32]* %2, i64 0, i64 %105
  %107 = load i32, i32* %106, align 4, !tbaa !5
  %108 = getelementptr inbounds [100 x i32], [100 x i32]* %2, i64 0, i64 %104
  store i32 %107, i32* %108, align 4, !tbaa !5
  %109 = add nuw nsw i64 %103, 1
  %110 = icmp eq i64 %109, %38
  br i1 %110, label %113, label %102, !llvm.loop !13

111:                                              ; preds = %26
  %112 = add nsw i32 %28, 1
  br label %113

113:                                              ; preds = %102, %97, %33, %111
  %114 = phi i32 [ %112, %111 ], [ %28, %33 ], [ %28, %97 ], [ %28, %102 ]
  %115 = phi i32 [ %27, %111 ], [ %34, %33 ], [ %34, %97 ], [ %34, %102 ]
  %116 = icmp slt i32 %114, %20
  br i1 %116, label %26, label %23, !llvm.loop !15

117:                                              ; preds = %23, %129
  %118 = phi i32 [ %130, %129 ], [ 0, %23 ]
  %119 = icmp eq i32 %118, 0
  br i1 %119, label %120, label %123

120:                                              ; preds = %117
  %121 = load i32, i32* %24, align 16, !tbaa !5
  %122 = call i32 (i8*, ...) @printf(i8* nonnull dereferenceable(1) getelementptr inbounds ([3 x i8], [3 x i8]* @.str, i64 0, i64 0), i32 %121)
  br label %129

123:                                              ; preds = %117
  %124 = sext i32 %118 to i64
  %125 = getelementptr inbounds [100 x i32], [100 x i32]* %2, i64 0, i64 %124
  %126 = load i32, i32* %125, align 4, !tbaa !5
  %127 = call i32 (i8*, ...) @printf(i8* nonnull dereferenceable(1) getelementptr inbounds ([4 x i8], [4 x i8]* @.str.1, i64 0, i64 0), i32 %126)
  %128 = add nsw i32 %118, 1
  br label %129

129:                                              ; preds = %123, %120
  %130 = phi i32 [ 1, %120 ], [ %128, %123 ]
  %131 = load i32, i32* %1, align 4, !tbaa !5
  %132 = sub nsw i32 %131, %115
  %133 = icmp slt i32 %130, %132
  br i1 %133, label %117, label %134, !llvm.loop !16

134:                                              ; preds = %129, %17, %23
  call void @llvm.lifetime.end.p0i8(i64 4, i8* nonnull %18) #3
  call void @llvm.lifetime.end.p0i8(i64 400, i8* nonnull %6) #3
  call void @llvm.lifetime.end.p0i8(i64 4, i8* nonnull %4) #3
  ret i32 0
}

; Function Attrs: argmemonly mustprogress nofree nosync nounwind willreturn
declare void @llvm.lifetime.start.p0i8(i64 immarg, i8* nocapture) #1

; Function Attrs: nofree nounwind
declare noundef i32 @__isoc99_scanf(i8* nocapture noundef readonly, ...) local_unnamed_addr #2

; Function Attrs: nofree nounwind
declare noundef i32 @printf(i8* nocapture noundef readonly, ...) local_unnamed_addr #2

; Function Attrs: argmemonly mustprogress nofree nosync nounwind willreturn
declare void @llvm.lifetime.end.p0i8(i64 immarg, i8* nocapture) #1


!llvm.module.flags = !{!0, !1, !2, !3}
!llvm.ident = !{!4}

!0 = !{i32 1, !"wchar_size", i32 4}
!1 = !{i32 7, !"PIC Level", i32 2}
!2 = !{i32 7, !"PIE Level", i32 2}
!3 = !{i32 7, !"uwtable", i32 1}
!4 = !{!"clang version 13.0.0"}
!5 = !{!6, !6, i64 0}
!6 = !{!"int", !7, i64 0}
!7 = !{!"omnipotent char", !8, i64 0}
!8 = !{!"Simple C/C++ TBAA"}
!9 = distinct !{!9, !10}
!10 = !{!"llvm.loop.mustprogress"}
!11 = distinct !{!11, !10, !12}
!12 = !{!"llvm.loop.isvectorized", i32 1}
!13 = distinct !{!13, !10, !14, !12}
!14 = !{!"llvm.loop.unroll.runtime.disable"}
!15 = distinct !{!15, !10}
!16 = distinct !{!16, !10}
